; ModuleID = '54/186.c'
source_filename = "54/186.c"
target datalayout = "e-m:e-p270:32:32-p271:32:32-p272:64:64-i64:64-f80:128-n8:16:32:64-S128"
target triple = "x86_64-pc-linux-gnu"

@.str = private unnamed_addr constant [6 x i8] c"%d %d\00", align 1
@.str.1 = private unnamed_addr constant [3 x i8] c"%d\00", align 1

; Function Attrs: noinline nounwind uwtable
define dso_local void @main() #0 {
  %1 = alloca i32, align 4
  %2 = alloca i32, align 4
  %3 = alloca i32, align 4
  %4 = alloca i32, align 4
  %5 = alloca i32, align 4
  %6 = alloca i32, align 4
  %7 = call i32 (i8*, ...) @__isoc99_scanf(i8* getelementptr inbounds ([6 x i8], [6 x i8]* @.str, i64 0, i64 0), i32* %1, i32* %2)
  %8 = load i32, i32* %1, align 4
  store i32 %8, i32* %3, align 4
  store i32 0, i32* %5, align 4
  br label %9

9:                                                ; preds = %55, %0
  %10 = load i32, i32* %5, align 4
  %11 = icmp eq i32 %10, 0
  br i1 %11, label %12, label %56

12:                                               ; preds = %9
  store i32 1, i32* %5, align 4
  store i32 1, i32* %4, align 4
  %13 = load i32, i32* %3, align 4
  store i32 %13, i32* %6, align 4
  br label %14

14:                                               ; preds = %48, %12
  %15 = load i32, i32* %4, align 4
  %16 = load i32, i32* %1, align 4
  %17 = icmp sle i32 %15, %16
  br i1 %17, label %18, label %21

18:                                               ; preds = %14
  %19 = load i32, i32* %5, align 4
  %20 = icmp eq i32 %19, 1
  br label %21

21:                                               ; preds = %18, %14
  %22 = phi i1 [ false, %14 ], [ %20, %18 ]
  br i1 %22, label %23, label %49

23:                                               ; preds = %21
  %24 = load i32, i32* %6, align 4
  %25 = load i32, i32* %2, align 4
  %26 = sub nsw i32 %24, %25
  %27 = load i32, i32* %1, align 4
  %28 = srem i32 %26, %27
  %29 = icmp eq i32 %28, 0
  br i1 %29, label %30, label %47

30:                                               ; preds = %23
  %31 = load i32, i32* %6, align 4
  %32 = load i32, i32* %2, align 4
  %33 = sub nsw i32 %31, %32
  %34 = icmp ne i32 %33, 0
  br i1 %34, label %35, label %47

35:                                               ; preds = %30
  store i32 1, i32* %5, align 4
  %36 = load i32, i32* %6, align 4
  %37 = load i32, i32* %6, align 4
  %38 = load i32, i32* %2, align 4
  %39 = sub nsw i32 %37, %38
  %40 = load i32, i32* %1, align 4
  %41 = sdiv i32 %39, %40
  %42 = sub nsw i32 %36, %41
  %43 = load i32, i32* %2, align 4
  %44 = sub nsw i32 %42, %43
  store i32 %44, i32* %6, align 4
  %45 = load i32, i32* %4, align 4
  %46 = add nsw i32 %45, 1
  store i32 %46, i32* %4, align 4
  br label %48

47:                                               ; preds = %30, %23
  store i32 0, i32* %5, align 4
  br label %48

48:                                               ; preds = %47, %35
  br label %14

49:                                               ; preds = %21
  %50 = load i32, i32* %5, align 4
  %51 = icmp eq i32 %50, 0
  br i1 %51, label %52, label %55

52:                                               ; preds = %49
  %53 = load i32, i32* %3, align 4
  %54 = add nsw i32 %53, 1
  store i32 %54, i32* %3, align 4
  br label %55

55:                                               ; preds = %52, %49
  br label %9

56:                                               ; preds = %9
  %57 = load i32, i32* %3, align 4
  %58 = call i32 (i8*, ...) @printf(i8* getelementptr inbounds ([3 x i8], [3 x i8]* @.str.1, i64 0, i64 0), i32 %57)
  ret void
}

declare dso_local i32 @__isoc99_scanf(i8*, ...) #1

declare dso_local i32 @printf(i8*, ...) #1


!llvm.module.flags = !{!0}
!llvm.ident = !{!1}

!0 = !{i32 1, !"wchar_size", i32 4}
!1 = !{!"clang version 10.0.0-4ubuntu1 "}
