; ModuleID = 'source-C-CXX/53/186.c'
source_filename = "source-C-CXX/53/186.c"
target datalayout = "e-m:e-p270:32:32-p271:32:32-p272:64:64-i64:64-f80:128-n8:16:32:64-S128"
target triple = "x86_64-pc-linux-gnu"

@.str = private unnamed_addr constant [6 x i8] c"%d %d\00", align 1
@.str.1 = private unnamed_addr constant [3 x i8] c"%d\00", align 1

; Function Attrs: nofree nounwind sspstrong uwtable
define dso_local void @main() local_unnamed_addr #0 {
  %1 = alloca i32, align 4
  %2 = alloca i32, align 4
  %3 = bitcast i32* %1 to i8*
  call void @llvm.lifetime.start.p0i8(i64 4, i8* nonnull %3) #3
  %4 = bitcast i32* %2 to i8*
  call void @llvm.lifetime.start.p0i8(i64 4, i8* nonnull %4) #3
  %5 = call i32 (i8*, ...) @__isoc99_scanf(i8* getelementptr inbounds ([6 x i8], [6 x i8]* @.str, i64 0, i64 0), i32* nonnull %1, i32* nonnull %2)
  %6 = load i32, i32* %1, align 4, !tbaa !5
  %7 = load i32, i32* %2, align 4
  %8 = icmp sgt i32 %6, 0
  br i1 %8, label %9, label %32

9:                                                ; preds = %0, %26
  %10 = phi i32 [ %28, %26 ], [ %6, %0 ]
  br label %11

11:                                               ; preds = %9, %20
  %12 = phi i32 [ %10, %9 ], [ %22, %20 ]
  %13 = phi i32 [ 1, %9 ], [ %23, %20 ]
  %14 = sub nsw i32 %12, %7
  %15 = srem i32 %14, %6
  %16 = sdiv i32 %14, %6
  %17 = icmp ne i32 %15, 0
  %18 = icmp eq i32 %14, 0
  %19 = or i1 %17, %18
  br i1 %19, label %26, label %20

20:                                               ; preds = %11
  %21 = add i32 %7, %16
  %22 = sub i32 %12, %21
  %23 = add nuw nsw i32 %13, 1
  %24 = icmp sge i32 %13, %6
  %25 = or i1 %19, %24
  br i1 %25, label %29, label %11, !llvm.loop !9

26:                                               ; preds = %11
  %27 = zext i1 %19 to i32
  %28 = add nsw i32 %10, %27
  br label %9

29:                                               ; preds = %20
  %30 = zext i1 %19 to i32
  %31 = add nuw nsw i32 %10, %30
  br label %32

32:                                               ; preds = %29, %0
  %33 = phi i32 [ %6, %0 ], [ %31, %29 ]
  %34 = call i32 (i8*, ...) @printf(i8* nonnull dereferenceable(1) getelementptr inbounds ([3 x i8], [3 x i8]* @.str.1, i64 0, i64 0), i32 %33)
  call void @llvm.lifetime.end.p0i8(i64 4, i8* nonnull %4) #3
  call void @llvm.lifetime.end.p0i8(i64 4, i8* nonnull %3) #3
  ret void
}

; Function Attrs: argmemonly mustprogress nofree nosync nounwind willreturn
declare void @llvm.lifetime.start.p0i8(i64 immarg, i8* nocapture) #1

; Function Attrs: nofree nounwind
declare noundef i32 @__isoc99_scanf(i8* nocapture noundef readonly, ...) local_unnamed_addr #2

; Function Attrs: nofree nounwind
declare noundef i32 @printf(i8* nocapture noundef readonly, ...) local_unnamed_addr #2

; Function Attrs: argmemonly mustprogress nofree nosync nounwind willreturn
declare void @llvm.lifetime.end.p0i8(i64 immarg, i8* nocapture) #1


!llvm.module.flags = !{!0, !1, !2, !3}
!llvm.ident = !{!4}

!0 = !{i32 1, !"wchar_size", i32 4}
!1 = !{i32 7, !"PIC Level", i32 2}
!2 = !{i32 7, !"PIE Level", i32 2}
!3 = !{i32 7, !"uwtable", i32 1}
!4 = !{!"clang version 13.0.0"}
!5 = !{!6, !6, i64 0}
!6 = !{!"int", !7, i64 0}
!7 = !{!"omnipotent char", !8, i64 0}
!8 = !{!"Simple C/C++ TBAA"}
!9 = distinct !{!9, !10}
!10 = !{!"llvm.loop.mustprogress"}
